; Function Attrs: nounwind uwtable
define dso_local range(i32 0, 2) i32 @skeyutl_main(i32 noundef %0, ptr noundef %1) local_unnamed_addr #0 {
  %3 = alloca ptr, align 8
  call void @llvm.lifetime.start.p0(i64 8, ptr nonnull %3) #3
  store ptr null, ptr %3, align 8, !tbaa !4
  %4 = tail call ptr @opt_init(i32 noundef %0, ptr noundef %1, ptr noundef nonnull @skeyutl_options) #3
  br label %.outer

.outer:                                           ; preds = %5, %2
  %.not53 = phi i1 [ true, %2 ], [ false, %5 ]
  %.041.ph = phi ptr [ null, %2 ], [ %.041.ph127, %5 ]
  %.039.ph = phi ptr [ null, %2 ], [ %.039.ph131, %5 ]
  %.037.ph = phi ptr [ null, %2 ], [ %.037.ph134, %5 ]
  br label %.outer126

.outer126:                                        ; preds = %.outer, %10
  %.041.ph127 = phi ptr [ %.041.ph, %.outer ], [ %11, %10 ]
  %.039.ph128 = phi ptr [ %.039.ph, %.outer ], [ %.039.ph131, %10 ]
  %.037.ph129 = phi ptr [ %.037.ph, %.outer ], [ %.037.ph134, %10 ]
  br label %.outer130

.outer130:                                        ; preds = %.outer126, %17
  %.039.ph131 = phi ptr [ %.039.ph128, %.outer126 ], [ %.3, %17 ]
  %.037.ph132 = phi ptr [ %.037.ph129, %.outer126 ], [ %.037.ph134, %17 ]
  br label %.outer133

.outer133:                                        ; preds = %.outer130, %24
  %.037.ph134 = phi ptr [ %.037.ph132, %.outer130 ], [ %25, %24 ]
  br label %5

5:                                                ; preds = %.backedge, %.outer133
  %6 = tail call i32 @opt_next() #3
  switch i32 %6, label %.backedge [
    i32 0, label %28
    i32 1602, label %26
    i32 -1, label %.loopexit
    i32 1, label %9
    i32 1609, label %.outer
    i32 1606, label %10
    i32 1607, label %12
    i32 1608, label %24
    i32 1603, label %26
    i32 1604, label %26
    i32 1601, label %26
  ], !llvm.loop !9

.backedge:                                        ; preds = %5, %26
  br label %5, !llvm.loop !9

.loopexit:                                        ; preds = %5, %28
  %7 = load ptr, ptr @bio_err, align 8, !tbaa !11
  %8 = call i32 (ptr, ptr, ...) @BIO_printf(ptr noundef %7, ptr noundef nonnull @.str.20, ptr noundef %4) #3
  br label %.loopexit57

9:                                                ; preds = %5
  tail call void @opt_help(ptr noundef nonnull @skeyutl_options) #3
  br label %.loopexit57

10:                                               ; preds = %5
  %11 = tail call ptr @opt_arg() #3
  br label %.outer126, !llvm.loop !9

12:                                               ; preds = %5
  %13 = icmp eq ptr %.039.ph131, null
  br i1 %13, label %14, label %17

14:                                               ; preds = %12
  %15 = tail call ptr @OPENSSL_sk_new_null() #3
  %16 = icmp eq ptr %15, null
  br i1 %16, label %21, label %17

17:                                               ; preds = %14, %12
  %.3 = phi ptr [ %15, %14 ], [ %.039.ph131, %12 ]
  %18 = tail call ptr @opt_arg() #3
  %19 = tail call i32 @OPENSSL_sk_push(ptr noundef nonnull %.3, ptr noundef %18) #3
  %20 = icmp eq i32 %19, 0
  br i1 %20, label %21, label %.outer130, !llvm.loop !9

21:                                               ; preds = %17, %14
  %.4 = phi ptr [ null, %14 ], [ %.3, %17 ]
  %22 = load ptr, ptr @bio_err, align 8, !tbaa !11
  %23 = tail call i32 (ptr, ptr, ...) @BIO_printf(ptr noundef %22, ptr noundef nonnull @.str.21, ptr noundef %4) #3
  br label %.loopexit57

24:                                               ; preds = %5
  %25 = tail call ptr @opt_arg() #3
  br label %.outer133, !llvm.loop !9

26:                                               ; preds = %5, %5, %5, %5
  %27 = tail call i32 @opt_provider(i32 noundef %6) #3
  %.not56 = icmp eq i32 %27, 0
  br i1 %.not56, label %.loopexit57, label %.backedge

28:                                               ; preds = %5
  %29 = call i32 @opt_cipher_any(ptr noundef %.041.ph127, ptr noundef nonnull %3) #3
  %.not52 = icmp eq i32 %29, 0
  br i1 %.not52, label %.loopexit, label %30

30:                                               ; preds = %28
  %31 = load ptr, ptr %3, align 8, !tbaa !4
  %32 = icmp eq ptr %31, null
  %33 = icmp eq ptr %.037.ph134, null
  %or.cond = select i1 %32, i1 %33, i1 false
  br i1 %or.cond, label %34, label %37

34:                                               ; preds = %30
  %35 = load ptr, ptr @bio_err, align 8, !tbaa !11
  %36 = call i32 (ptr, ptr, ...) @BIO_printf(ptr noundef %35, ptr noundef nonnull @.str.22) #3
  br label %.loopexit57

37:                                               ; preds = %30
  br i1 %.not53, label %80, label %38

38:                                               ; preds = %37
  %39 = call ptr @app_get0_libctx() #3
  br i1 %33, label %40, label %43

40:                                               ; preds = %38
  %41 = load ptr, ptr %3, align 8, !tbaa !4
  %42 = call ptr @EVP_CIPHER_get0_name(ptr noundef %41) #3
  br label %43

43:                                               ; preds = %38, %40
  %44 = phi ptr [ %42, %40 ], [ %.037.ph134, %38 ]
  %45 = call ptr @app_get0_propq() #3
  %46 = call ptr @EVP_SKEYMGMT_fetch(ptr noundef %39, ptr noundef %44, ptr noundef %45) #3
  %47 = icmp eq ptr %46, null
  br i1 %47, label %.loopexit57, label %48

48:                                               ; preds = %43
  %49 = call ptr @EVP_SKEYMGMT_get0_gen_settable_params(ptr noundef nonnull %46) #3
  %50 = call ptr @app_params_new_from_opts(ptr noundef %.039.ph131, ptr noundef %49) #3
  %51 = call ptr @app_get0_libctx() #3
  br i1 %33, label %52, label %55

52:                                               ; preds = %48
  %53 = load ptr, ptr %3, align 8, !tbaa !4
  %54 = call ptr @EVP_CIPHER_get0_name(ptr noundef %53) #3
  br label %55

55:                                               ; preds = %48, %52
  %56 = phi ptr [ %54, %52 ], [ %.037.ph134, %48 ]
  %57 = call ptr @app_get0_propq() #3
  %58 = call ptr @EVP_SKEY_generate(ptr noundef %51, ptr noundef %56, ptr noundef %57, ptr noundef %50) #3
  call void @OSSL_PARAM_free(ptr noundef %50) #3
  %59 = icmp eq ptr %58, null
  br i1 %59, label %60, label %69

60:                                               ; preds = %55
  %61 = load ptr, ptr @bio_err, align 8, !tbaa !11
  br i1 %33, label %62, label %65

62:                                               ; preds = %60
  %63 = load ptr, ptr %3, align 8, !tbaa !4
  %64 = call ptr @EVP_CIPHER_get0_name(ptr noundef %63) #3
  br label %65

65:                                               ; preds = %60, %62
  %66 = phi ptr [ %64, %62 ], [ %.037.ph134, %60 ]
  %67 = call i32 (ptr, ptr, ...) @BIO_printf(ptr noundef %61, ptr noundef nonnull @.str.23, ptr noundef %66) #3
  %68 = load ptr, ptr @bio_err, align 8, !tbaa !11
  call void @ERR_print_errors(ptr noundef %68) #3
  br label %.loopexit57

69:                                               ; preds = %55
  %70 = call ptr @EVP_SKEY_get0_key_id(ptr noundef nonnull %58) #3
  %71 = load ptr, ptr @bio_out, align 8, !tbaa !11
  %.not55 = icmp eq ptr %70, null
  %72 = select i1 %.not55, ptr @.str.25, ptr %70
  %73 = call i32 (ptr, ptr, ...) @BIO_printf(ptr noundef %71, ptr noundef nonnull @.str.24, ptr noundef nonnull %72) #3
  %74 = load ptr, ptr @bio_out, align 8, !tbaa !11
  %75 = call ptr @EVP_SKEY_get0_provider_name(ptr noundef nonnull %58) #3
  %76 = call i32 (ptr, ptr, ...) @BIO_printf(ptr noundef %74, ptr noundef nonnull @.str.26, ptr noundef %75) #3
  %77 = load ptr, ptr @bio_out, align 8, !tbaa !11
  %78 = call ptr @EVP_SKEY_get0_skeymgmt_name(ptr noundef nonnull %58) #3
  %79 = call i32 (ptr, ptr, ...) @BIO_printf(ptr noundef %77, ptr noundef nonnull @.str.27, ptr noundef %78) #3
  br label %.loopexit57

80:                                               ; preds = %37
  %81 = load ptr, ptr @bio_err, align 8, !tbaa !11
  %82 = call i32 (ptr, ptr, ...) @BIO_printf(ptr noundef %81, ptr noundef nonnull @.str.28) #3
  br label %.loopexit57

.loopexit57:                                      ; preds = %26, %43, %69, %65, %80, %34, %21, %9, %.loopexit
  %.043 = phi i32 [ 1, %21 ], [ 0, %9 ], [ 1, %.loopexit ], [ 1, %34 ], [ 1, %80 ], [ 1, %43 ], [ 1, %65 ], [ 0, %69 ], [ 1, %26 ]
  %.2 = phi ptr [ %.4, %21 ], [ %.039.ph131, %9 ], [ %.039.ph131, %.loopexit ], [ %.039.ph131, %34 ], [ %.039.ph131, %80 ], [ %.039.ph131, %43 ], [ %.039.ph131, %65 ], [ %.039.ph131, %69 ], [ %.039.ph131, %26 ]
  %.036 = phi ptr [ null, %21 ], [ null, %9 ], [ null, %.loopexit ], [ null, %34 ], [ null, %80 ], [ null, %43 ], [ null, %65 ], [ %58, %69 ], [ null, %26 ]
  %.035 = phi ptr [ null, %21 ], [ null, %9 ], [ null, %.loopexit ], [ null, %34 ], [ null, %80 ], [ null, %43 ], [ %46, %65 ], [ %46, %69 ], [ null, %26 ]
  %83 = load ptr, ptr @bio_err, align 8, !tbaa !11
  call void @ERR_print_errors(ptr noundef %83) #3
  call void @OPENSSL_sk_free(ptr noundef %.2) #3
  call void @EVP_SKEYMGMT_free(ptr noundef %.035) #3
  call void @EVP_SKEY_free(ptr noundef %.036) #3
  %84 = load ptr, ptr %3, align 8, !tbaa !4
  call void @EVP_CIPHER_free(ptr noundef %84) #3
  call void @llvm.lifetime.end.p0(i64 8, ptr nonnull %3) #3
  ret i32 %.043
}